target datalayout = "e-m:e-p270:32:32-p271:32:32-p272:64:64-i64:64-i128:128-f80:128-n8:16:32:64-S128"
target triple = "x86_64-pc-linux-gnu"

%"class.std::__cxx11::basic_string" = type { %"struct.std::__cxx11::basic_string<char>::_Alloc_hider", i64, %union.anon }
%"struct.std::__cxx11::basic_string<char>::_Alloc_hider" = type { ptr }
%union.anon = type { i64, [8 x i8] }
%"class.cv::Exception" = type <{ %"class.std::exception", %"class.std::__cxx11::basic_string", i32, [4 x i8], %"class.std::__cxx11::basic_string", %"class.std::__cxx11::basic_string", %"class.std::__cxx11::basic_string", i32, [4 x i8] }>
%"class.std::exception" = type { ptr }

@_ZN2cvL16param_dumpErrorsE = internal global i8 0, align 1
@_ZN2cvL12breakOnErrorE = internal global i8 0, align 1
@_ZN2cvL19customErrorCallbackE = internal global ptr null, align 8
@_ZN2cvL23customErrorCallbackDataE = internal global ptr null, align 8
@_ZZN2cv5errorERKNS_9ExceptionEE1p = internal global ptr null, align 8
@_ZTIN2cv9ExceptionE = constant { ptr, ptr, ptr } { ptr getelementptr inbounds (ptr, ptr @_ZTVN10__cxxabiv120__si_class_type_infoE, i64 2), ptr @_ZTSN2cv9ExceptionE, ptr @_ZTISt9exception }, align 8
@_ZN2cv9ExceptionD1Ev = unnamed_addr alias void (ptr), ptr @_ZN2cv9ExceptionD2Ev

; Function Attrs: mustprogress nounwind uwtable
define available_externally noundef ptr @_ZNKSt7__cxx1112basic_stringIcSt11char_traitsIcESaIcEE7_M_dataEv(ptr noundef nonnull align 8 dereferenceable(32) %0) #5 align 2 {
  %2 = alloca ptr, align 8
  store ptr %0, ptr %2, align 8, !tbaa !27
  %3 = load ptr, ptr %2, align 8
  %4 = getelementptr inbounds nuw %"class.std::__cxx11::basic_string", ptr %3, i32 0, i32 0
  %5 = getelementptr inbounds nuw %"struct.std::__cxx11::basic_string<char>::_Alloc_hider", ptr %4, i32 0, i32 0
  %6 = load ptr, ptr %5, align 8, !tbaa !213
  ret ptr %6
}

; Function Attrs: mustprogress nounwind uwtable
define available_externally noundef ptr @_ZNKSt7__cxx1112basic_stringIcSt11char_traitsIcESaIcEE5c_strEv(ptr noundef nonnull align 8 dereferenceable(32) %0) #5 align 2 {
  %2 = alloca ptr, align 8
  store ptr %0, ptr %2, align 8, !tbaa !27
  %3 = load ptr, ptr %2, align 8
  %4 = call noundef ptr @_ZNKSt7__cxx1112basic_stringIcSt11char_traitsIcESaIcEE7_M_dataEv(ptr noundef nonnull align 8 dereferenceable(32) %3)
  ret ptr %4
}

; Function Attrs: mustprogress noreturn uwtable
define void @_ZN2cv5errorERKNS_9ExceptionE(ptr noundef nonnull align 8 dereferenceable(148) %0) #15 personality ptr @__gxx_personality_v0 {
  %2 = alloca ptr, align 8
  %3 = alloca ptr, align 8
  %4 = alloca i32, align 4
  store ptr %0, ptr %2, align 8, !tbaa !14
  %5 = load ptr, ptr @_ZN2cvL19customErrorCallbackE, align 8, !tbaa !39
  %6 = icmp ne ptr %5, null
  br i1 %6, label %7, label %26

7:                                                ; preds = %1
  %8 = load ptr, ptr @_ZN2cvL19customErrorCallbackE, align 8, !tbaa !39
  %9 = load ptr, ptr %2, align 8, !tbaa !14
  %10 = getelementptr inbounds nuw %"class.cv::Exception", ptr %9, i32 0, i32 2
  %11 = load i32, ptr %10, align 8, !tbaa !18
  %12 = load ptr, ptr %2, align 8, !tbaa !14
  %13 = getelementptr inbounds nuw %"class.cv::Exception", ptr %12, i32 0, i32 5
  %14 = call noundef ptr @_ZNKSt7__cxx1112basic_stringIcSt11char_traitsIcESaIcEE5c_strEv(ptr noundef nonnull align 8 dereferenceable(32) %13) #3
  %15 = load ptr, ptr %2, align 8, !tbaa !14
  %16 = getelementptr inbounds nuw %"class.cv::Exception", ptr %15, i32 0, i32 4
  %17 = call noundef ptr @_ZNKSt7__cxx1112basic_stringIcSt11char_traitsIcESaIcEE5c_strEv(ptr noundef nonnull align 8 dereferenceable(32) %16) #3
  %18 = load ptr, ptr %2, align 8, !tbaa !14
  %19 = getelementptr inbounds nuw %"class.cv::Exception", ptr %18, i32 0, i32 6
  %20 = call noundef ptr @_ZNKSt7__cxx1112basic_stringIcSt11char_traitsIcESaIcEE5c_strEv(ptr noundef nonnull align 8 dereferenceable(32) %19) #3
  %21 = load ptr, ptr %2, align 8, !tbaa !14
  %22 = getelementptr inbounds nuw %"class.cv::Exception", ptr %21, i32 0, i32 7
  %23 = load i32, ptr %22, align 8, !tbaa !24
  %24 = load ptr, ptr @_ZN2cvL23customErrorCallbackDataE, align 8, !tbaa !39
  %25 = call noundef i32 %8(i32 noundef %11, ptr noundef %14, ptr noundef %17, ptr noundef %20, i32 noundef %23, ptr noundef %24)
  br label %32

26:                                               ; preds = %1
  %27 = load i8, ptr @_ZN2cvL16param_dumpErrorsE, align 1, !tbaa !8, !range !30, !noundef !31
  %28 = trunc i8 %27 to i1
  br i1 %28, label %29, label %31

29:                                               ; preds = %26
  %30 = load ptr, ptr %2, align 8, !tbaa !14
  call void @_ZN2cvL13dumpExceptionERKNS_9ExceptionE(ptr noundef nonnull align 8 dereferenceable(148) %30)
  br label %31

31:                                               ; preds = %29, %26
  br label %32

32:                                               ; preds = %31, %7
  %33 = load i8, ptr @_ZN2cvL12breakOnErrorE, align 1, !tbaa !8, !range !30, !noundef !31
  %34 = trunc i8 %33 to i1
  br i1 %34, label %35, label %37

35:                                               ; preds = %32
  %36 = load ptr, ptr @_ZZN2cv5errorERKNS_9ExceptionEE1p, align 8, !tbaa !87
  store volatile i32 0, ptr %36, align 4, !tbaa !29
  br label %37

37:                                               ; preds = %35, %32
  %38 = call ptr @__cxa_allocate_exception(i64 152) #3
  %39 = load ptr, ptr %2, align 8, !tbaa !14
  invoke void @_ZN2cv9ExceptionC2ERKS0_(ptr noundef nonnull align 8 dereferenceable(148) %38, ptr noundef nonnull align 8 dereferenceable(148) %39)
          to label %40 unwind label %41

40:                                               ; preds = %37
  call void @__cxa_throw(ptr %38, ptr @_ZTIN2cv9ExceptionE, ptr @_ZN2cv9ExceptionD1Ev) #32
  unreachable

41:                                               ; preds = %37
  %42 = landingpad { ptr, i32 }
          cleanup
  %43 = extractvalue { ptr, i32 } %42, 0
  store ptr %43, ptr %3, align 8
  %44 = extractvalue { ptr, i32 } %42, 1
  store i32 %44, ptr %4, align 4
  call void @__cxa_free_exception(ptr %38) #3
  br label %45

45:                                               ; preds = %41
  %46 = load ptr, ptr %3, align 8
  %47 = load i32, ptr %4, align 4
  %48 = insertvalue { ptr, i32 } poison, ptr %46, 0
  %49 = insertvalue { ptr, i32 } %48, i32 %47, 1
  resume { ptr, i32 } %49
}