; Function Attrs: mustprogress noreturn uwtable
define void @_ZN2cv5errorERKNS_9ExceptionE(ptr noundef nonnull align 8 dereferenceable(148) %0) local_unnamed_addr #20 personality ptr @__gxx_personality_v0 {
  %2 = load ptr, ptr @_ZN2cvL19customErrorCallbackE, align 8, !tbaa !115
  %.not = icmp eq ptr %2, null
  br i1 %.not, label %16, label %3

3:                                                ; preds = %1
  %4 = getelementptr inbounds nuw i8, ptr %0, i64 40
  %5 = load i32, ptr %4, align 8, !tbaa !27
  %6 = getelementptr inbounds nuw i8, ptr %0, i64 80
  %7 = load ptr, ptr %6, align 8, !tbaa !21
  %8 = getelementptr inbounds nuw i8, ptr %0, i64 48
  %9 = load ptr, ptr %8, align 8, !tbaa !21
  %10 = getelementptr inbounds nuw i8, ptr %0, i64 112
  %11 = load ptr, ptr %10, align 8, !tbaa !21
  %12 = getelementptr inbounds nuw i8, ptr %0, i64 144
  %13 = load i32, ptr %12, align 8, !tbaa !30
  %14 = load ptr, ptr @_ZN2cvL23customErrorCallbackDataE, align 8, !tbaa !115
  %15 = tail call noundef i32 %2(i32 noundef %5, ptr noundef %7, ptr noundef %9, ptr noundef %11, i32 noundef %13, ptr noundef %14)
  br label %20

16:                                               ; preds = %1
  %17 = load i8, ptr @_ZN2cvL16param_dumpErrorsE, align 1, !tbaa !14, !range !80, !noundef !81
  %18 = trunc nuw i8 %17 to i1
  br i1 %18, label %19, label %20

19:                                               ; preds = %16
  tail call fastcc void @_ZN2cvL13dumpExceptionERKNS_9ExceptionE(ptr noundef nonnull align 8 dereferenceable(148) %0)
  br label %20

20:                                               ; preds = %16, %19, %3
  %21 = load i8, ptr @_ZN2cvL12breakOnErrorE, align 1, !tbaa !14, !range !80, !noundef !81
  %22 = trunc nuw i8 %21 to i1
  br i1 %22, label %23, label %24

23:                                               ; preds = %20
  store volatile i32 0, ptr null, align 4294967296, !tbaa !83
  br label %24

24:                                               ; preds = %23, %20
  %25 = tail call ptr @__cxa_allocate_exception(i64 152) #34
  invoke void @_ZN2cv9ExceptionC2ERKS0_(ptr noundef nonnull align 8 dereferenceable(148) %25, ptr noundef nonnull align 8 dereferenceable(148) %0)
          to label %26 unwind label %27

26:                                               ; preds = %24
  tail call void @__cxa_throw(ptr nonnull %25, ptr nonnull @_ZTIN2cv9ExceptionE, ptr nonnull @_ZN2cv9ExceptionD1Ev) #50
  unreachable

27:                                               ; preds = %24
  %28 = landingpad { ptr, i32 }
          cleanup
  tail call void @__cxa_free_exception(ptr nonnull %25) #34
  resume { ptr, i32 } %28
}